target datalayout = "e-m:e-p270:32:32-p271:32:32-p272:64:64-i64:64-i128:128-f80:128-n8:16:32:64-S128"
target triple = "x86_64-pc-linux-gnu"

%"class.nix::CanonPath" = type { %"class.std::__cxx11::basic_string" }
%"class.std::__cxx11::basic_string" = type { %"struct.std::__cxx11::basic_string<char>::_Alloc_hider", i64, %union.anon }
%"struct.std::__cxx11::basic_string<char>::_Alloc_hider" = type { ptr }
%union.anon = type { i64, [8 x i8] }
%"struct.nix::SourcePath" = type { %"class.nix::ref", %"class.nix::CanonPath" }
%"class.nix::ref" = type { %"class.std::shared_ptr" }
%"class.std::shared_ptr" = type { %"class.std::__shared_ptr" }
%"class.std::__shared_ptr" = type { ptr, %"class.std::__shared_count" }
%"class.std::__shared_count" = type { ptr }
%"struct.nix::SourceAccessor::Stat" = type { i32, [4 x i8], %"class.std::optional.20", i8, [7 x i8], %"class.std::optional.20" }
%"class.std::optional.20" = type { %"struct.std::_Optional_base.21" }
%"struct.std::_Optional_base.21" = type { %"struct.std::_Optional_payload.23" }
%"struct.std::_Optional_payload.23" = type { %"struct.std::_Optional_payload_base.base.25", [7 x i8] }
%"struct.std::_Optional_payload_base.base.25" = type <{ %"union.std::_Optional_payload_base<unsigned long>::_Storage", i8 }>
%"union.std::_Optional_payload_base<unsigned long>::_Storage" = type { i64 }
%"class.std::optional.28" = type { %"struct.std::_Optional_base.29" }
%"struct.std::_Optional_base.29" = type { %"struct.std::_Optional_payload.31" }
%"struct.std::_Optional_payload.31" = type { %"struct.std::_Optional_payload_base.base.33", [7 x i8] }
%"struct.std::_Optional_payload_base.base.33" = type <{ %"union.std::_Optional_payload_base<nix::SourceAccessor::Stat>::_Storage", i8 }>
%"union.std::_Optional_payload_base<nix::SourceAccessor::Stat>::_Storage" = type { %"struct.nix::SourceAccessor::Stat" }

; Function Attrs: mustprogress nounwind uwtable
define linkonce_odr noundef ptr @_ZNKSt12__shared_ptrIN3nix13InputAccessorELN9__gnu_cxx12_Lock_policyE2EE3getEv(ptr noundef nonnull align 8 dereferenceable(16) %0) #4 comdat align 2 {
  %2 = alloca ptr, align 8
  store ptr %0, ptr %2, align 8
  %3 = load ptr, ptr %2, align 8
  %4 = getelementptr inbounds %"class.std::__shared_ptr", ptr %3, i32 0, i32 0
  %5 = load ptr, ptr %4, align 8
  ret ptr %5
}

; Function Attrs: mustprogress nounwind uwtable
define linkonce_odr noundef ptr @_ZNKSt19__shared_ptr_accessIN3nix13InputAccessorELN9__gnu_cxx12_Lock_policyE2ELb0ELb0EE6_M_getEv(ptr noundef nonnull align 1 dereferenceable(1) %0) #4 comdat align 2 {
  %2 = alloca ptr, align 8
  store ptr %0, ptr %2, align 8
  %3 = load ptr, ptr %2, align 8
  %4 = call noundef ptr @_ZNKSt12__shared_ptrIN3nix13InputAccessorELN9__gnu_cxx12_Lock_policyE2EE3getEv(ptr noundef nonnull align 8 dereferenceable(16) %3) #3
  ret ptr %4
}

; Function Attrs: mustprogress nounwind uwtable
define linkonce_odr noundef nonnull align 8 dereferenceable(64) ptr @_ZNKSt19__shared_ptr_accessIN3nix13InputAccessorELN9__gnu_cxx12_Lock_policyE2ELb0ELb0EEdeEv(ptr noundef nonnull align 1 dereferenceable(1) %0) #4 comdat align 2 {
  %2 = alloca ptr, align 8
  store ptr %0, ptr %2, align 8
  %3 = load ptr, ptr %2, align 8
  br label %4

4:                                                ; preds = %1
  br label %5

5:                                                ; preds = %4
  br label %6

6:                                                ; preds = %5
  %7 = call noundef ptr @_ZNKSt19__shared_ptr_accessIN3nix13InputAccessorELN9__gnu_cxx12_Lock_policyE2ELb0ELb0EE6_M_getEv(ptr noundef nonnull align 1 dereferenceable(1) %3) #3
  ret ptr %7
}

; Function Attrs: mustprogress nounwind uwtable
define linkonce_odr noundef ptr @_ZNK3nix3refINS_13InputAccessorEEptEv(ptr noundef nonnull align 8 dereferenceable(16) %0) #4 comdat align 2 {
  %2 = alloca ptr, align 8
  store ptr %0, ptr %2, align 8
  %3 = load ptr, ptr %2, align 8
  %4 = getelementptr inbounds %"class.nix::ref", ptr %3, i32 0, i32 0
  %5 = call noundef nonnull align 8 dereferenceable(64) ptr @_ZNKSt19__shared_ptr_accessIN3nix13InputAccessorELN9__gnu_cxx12_Lock_policyE2ELb0ELb0EEdeEv(ptr noundef nonnull align 1 dereferenceable(1) %4) #3
  ret ptr %5
}

; Function Attrs: mustprogress uwtable
define void @_ZNK3nix10SourcePath10maybeLstatEv(ptr dead_on_unwind noalias writable sret(%"class.std::optional.28") align 8 %0, ptr noundef nonnull align 8 dereferenceable(48) %1) #5 align 2 {
  %3 = alloca ptr, align 8
  store ptr %1, ptr %3, align 8
  %4 = load ptr, ptr %3, align 8
  %5 = getelementptr inbounds %"struct.nix::SourcePath", ptr %4, i32 0, i32 0
  %6 = call noundef ptr @_ZNK3nix3refINS_13InputAccessorEEptEv(ptr noundef nonnull align 8 dereferenceable(16) %5)
  %7 = load ptr, ptr %6, align 8
  %8 = getelementptr i8, ptr %7, i64 -24
  %9 = load i64, ptr %8, align 8
  %10 = getelementptr inbounds i8, ptr %6, i64 %9
  %11 = getelementptr inbounds %"struct.nix::SourcePath", ptr %4, i32 0, i32 1
  %12 = load ptr, ptr %10, align 8
  %13 = getelementptr inbounds ptr, ptr %12, i64 5
  %14 = load ptr, ptr %13, align 8
  call void %14(ptr dead_on_unwind writable sret(%"class.std::optional.28") align 8 %0, ptr noundef nonnull align 8 dereferenceable(80) %10, ptr noundef nonnull align 8 dereferenceable(32) %11)
  ret void
}